target datalayout = "e-m:e-p270:32:32-p271:32:32-p272:64:64-i64:64-i128:128-f80:128-n8:16:32:64-S128"
target triple = "x86_64-pc-linux-gnu"

@.str = private unnamed_addr constant [2 x i8] c";\00", align 1
@.str.1 = private unnamed_addr constant [4 x i8] c"gpu\00", align 1
@.str.2 = private unnamed_addr constant [2 x i8] c",\00", align 1
@.str.3 = private unnamed_addr constant [8 x i8] c"verbose\00", align 1
@.str.4 = private unnamed_addr constant [7 x i8] c"memory\00", align 1
@.str.5 = private unnamed_addr constant [4 x i8] c"low\00", align 1
@.str.6 = private unnamed_addr constant [7 x i8] c"medium\00", align 1
@.str.7 = private unnamed_addr constant [5 x i8] c"high\00", align 1
@.str.8 = private unnamed_addr constant [7 x i8] c"highm1\00", align 1

; Function Attrs: nounwind uwtable
define dso_local i32 @tres_freq_verify_cmdline(ptr noundef %0) #0 {
  %2 = alloca i32, align 4
  %3 = alloca ptr, align 8
  %4 = alloca ptr, align 8
  %5 = alloca ptr, align 8
  %6 = alloca ptr, align 8
  %7 = alloca ptr, align 8
  %8 = alloca i32, align 4
  %9 = alloca i32, align 4
  store ptr %0, ptr %3, align 8
  call void @llvm.lifetime.start.p0(i64 8, ptr %4) #5
  call void @llvm.lifetime.start.p0(i64 8, ptr %5) #5
  store ptr null, ptr %5, align 8
  call void @llvm.lifetime.start.p0(i64 8, ptr %6) #5
  call void @llvm.lifetime.start.p0(i64 8, ptr %7) #5
  call void @llvm.lifetime.start.p0(i64 4, ptr %8) #5
  store i32 0, ptr %8, align 4
  %10 = load ptr, ptr %3, align 8
  %11 = icmp eq ptr %10, null
  br i1 %11, label %18, label %12

12:                                               ; preds = %1
  %13 = load ptr, ptr %3, align 8
  %14 = getelementptr inbounds i8, ptr %13, i64 0
  %15 = load i8, ptr %14, align 1
  %16 = sext i8 %15 to i32
  %17 = icmp eq i32 %16, 0
  br i1 %17, label %18, label %19

18:                                               ; preds = %12, %1
  store i32 0, ptr %2, align 4
  store i32 1, ptr %9, align 4
  br label %52

19:                                               ; preds = %12
  %20 = load ptr, ptr %3, align 8
  %21 = call ptr @xstrdup(ptr noundef %20)
  store ptr %21, ptr %6, align 8
  %22 = load ptr, ptr %6, align 8
  %23 = call ptr @strtok_r(ptr noundef %22, ptr noundef @.str, ptr noundef %5) #5
  store ptr %23, ptr %7, align 8
  br label %24

24:                                               ; preds = %48, %19
  %25 = load ptr, ptr %7, align 8
  %26 = icmp ne ptr %25, null
  br i1 %26, label %27, label %50

27:                                               ; preds = %24
  %28 = load ptr, ptr %7, align 8
  %29 = call ptr @strchr(ptr noundef %28, i32 noundef 58) #6
  store ptr %29, ptr %4, align 8
  %30 = load ptr, ptr %4, align 8
  %31 = icmp ne ptr %30, null
  br i1 %31, label %33, label %32

32:                                               ; preds = %27
  store i32 -1, ptr %8, align 4
  br label %50

33:                                               ; preds = %27
  %34 = load ptr, ptr %4, align 8
  %35 = getelementptr inbounds i8, ptr %34, i64 0
  store i8 0, ptr %35, align 1
  %36 = load ptr, ptr %4, align 8
  %37 = getelementptr inbounds nuw i8, ptr %36, i32 1
  store ptr %37, ptr %4, align 8
  %38 = load ptr, ptr %7, align 8
  %39 = call i32 @strcmp(ptr noundef %38, ptr noundef @.str.1) #6
  %40 = icmp ne i32 %39, 0
  br i1 %40, label %47, label %41

41:                                               ; preds = %33
  %42 = load ptr, ptr %4, align 8
  %43 = call i32 @_valid_gpu_freq(ptr noundef %42)
  %44 = icmp ne i32 %43, 0
  br i1 %44, label %45, label %46

45:                                               ; preds = %41
  store i32 -1, ptr %8, align 4
  br label %50

46:                                               ; preds = %41
  br label %48

47:                                               ; preds = %33
  store i32 -1, ptr %8, align 4
  br label %50

48:                                               ; preds = %46
  %49 = call ptr @strtok_r(ptr noundef null, ptr noundef @.str, ptr noundef %5) #5
  store ptr %49, ptr %7, align 8
  br label %24, !llvm.loop !8

50:                                               ; preds = %47, %45, %32, %24
  call void @slurm_xfree(ptr noundef %6)
  %51 = load i32, ptr %8, align 4
  store i32 %51, ptr %2, align 4
  store i32 1, ptr %9, align 4
  br label %52

52:                                               ; preds = %50, %18
  call void @llvm.lifetime.end.p0(i64 4, ptr %8) #5
  call void @llvm.lifetime.end.p0(i64 8, ptr %7) #5
  call void @llvm.lifetime.end.p0(i64 8, ptr %6) #5
  call void @llvm.lifetime.end.p0(i64 8, ptr %5) #5
  call void @llvm.lifetime.end.p0(i64 8, ptr %4) #5
  %53 = load i32, ptr %2, align 4
  ret i32 %53
}

; Function Attrs: nocallback nofree nosync nounwind willreturn memory(argmem: readwrite)
declare void @llvm.lifetime.start.p0(i64 immarg, ptr captures(none)) #1

declare ptr @xstrdup(ptr noundef) #2

; Function Attrs: nounwind
declare ptr @strtok_r(ptr noundef, ptr noundef, ptr noundef) #3

; Function Attrs: nounwind willreturn memory(read)
declare ptr @strchr(ptr noundef, i32 noundef) #4

; Function Attrs: nounwind willreturn memory(read)
declare i32 @strcmp(ptr noundef, ptr noundef) #4

; Function Attrs: nounwind uwtable
define internal i32 @_valid_gpu_freq(ptr noundef %0) #0 {
  %2 = alloca i32, align 4
  %3 = alloca ptr, align 8
  %4 = alloca ptr, align 8
  %5 = alloca ptr, align 8
  %6 = alloca ptr, align 8
  %7 = alloca ptr, align 8
  %8 = alloca i32, align 4
  %9 = alloca i32, align 4
  store ptr %0, ptr %3, align 8
  call void @llvm.lifetime.start.p0(i64 8, ptr %4) #5
  call void @llvm.lifetime.start.p0(i64 8, ptr %5) #5
  store ptr null, ptr %5, align 8
  call void @llvm.lifetime.start.p0(i64 8, ptr %6) #5
  call void @llvm.lifetime.start.p0(i64 8, ptr %7) #5
  call void @llvm.lifetime.start.p0(i64 4, ptr %8) #5
  store i32 0, ptr %8, align 4
  %10 = load ptr, ptr %3, align 8
  %11 = icmp eq ptr %10, null
  br i1 %11, label %18, label %12

12:                                               ; preds = %1
  %13 = load ptr, ptr %3, align 8
  %14 = getelementptr inbounds i8, ptr %13, i64 0
  %15 = load i8, ptr %14, align 1
  %16 = sext i8 %15 to i32
  %17 = icmp eq i32 %16, 0
  br i1 %17, label %18, label %19

18:                                               ; preds = %12, %1
  store i32 -1, ptr %2, align 4
  store i32 1, ptr %9, align 4
  br label %63

19:                                               ; preds = %12
  %20 = load ptr, ptr %3, align 8
  %21 = call ptr @xstrdup(ptr noundef %20)
  store ptr %21, ptr %6, align 8
  %22 = load ptr, ptr %6, align 8
  %23 = call ptr @strtok_r(ptr noundef %22, ptr noundef @.str.2, ptr noundef %5) #5
  store ptr %23, ptr %7, align 8
  br label %24

24:                                               ; preds = %59, %19
  %25 = load ptr, ptr %7, align 8
  %26 = icmp ne ptr %25, null
  br i1 %26, label %27, label %61

27:                                               ; preds = %24
  %28 = load ptr, ptr %7, align 8
  %29 = call ptr @strchr(ptr noundef %28, i32 noundef 61) #6
  store ptr %29, ptr %4, align 8
  %30 = load ptr, ptr %4, align 8
  %31 = icmp ne ptr %30, null
  br i1 %31, label %43, label %32

32:                                               ; preds = %27
  %33 = load ptr, ptr %7, align 8
  %34 = call i32 @_test_val(ptr noundef %33)
  store i32 %34, ptr %8, align 4
  %35 = load i32, ptr %8, align 4
  %36 = icmp ne i32 %35, 0
  br i1 %36, label %37, label %42

37:                                               ; preds = %32
  %38 = load ptr, ptr %7, align 8
  %39 = call i32 @strcmp(ptr noundef %38, ptr noundef @.str.3) #6
  %40 = icmp ne i32 %39, 0
  br i1 %40, label %42, label %41

41:                                               ; preds = %37
  store i32 0, ptr %8, align 4
  br label %42

42:                                               ; preds = %41, %37, %32
  br label %55

43:                                               ; preds = %27
  %44 = load ptr, ptr %4, align 8
  %45 = getelementptr inbounds i8, ptr %44, i64 0
  store i8 0, ptr %45, align 1
  %46 = load ptr, ptr %7, align 8
  %47 = call i32 @strcmp(ptr noundef %46, ptr noundef @.str.4) #6
  %48 = icmp ne i32 %47, 0
  br i1 %48, label %53, label %49

49:                                               ; preds = %43
  %50 = load ptr, ptr %4, align 8
  %51 = getelementptr inbounds i8, ptr %50, i64 1
  %52 = call i32 @_test_val(ptr noundef %51)
  store i32 %52, ptr %8, align 4
  br label %54

53:                                               ; preds = %43
  store i32 -1, ptr %8, align 4
  br label %54

54:                                               ; preds = %53, %49
  br label %55

55:                                               ; preds = %54, %42
  %56 = load i32, ptr %8, align 4
  %57 = icmp ne i32 %56, 0
  br i1 %57, label %58, label %59

58:                                               ; preds = %55
  br label %61

59:                                               ; preds = %55
  %60 = call ptr @strtok_r(ptr noundef null, ptr noundef @.str.2, ptr noundef %5) #5
  store ptr %60, ptr %7, align 8
  br label %24, !llvm.loop !11

61:                                               ; preds = %58, %24
  call void @slurm_xfree(ptr noundef %6)
  %62 = load i32, ptr %8, align 4
  store i32 %62, ptr %2, align 4
  store i32 1, ptr %9, align 4
  br label %63

63:                                               ; preds = %61, %18
  call void @llvm.lifetime.end.p0(i64 4, ptr %8) #5
  call void @llvm.lifetime.end.p0(i64 8, ptr %7) #5
  call void @llvm.lifetime.end.p0(i64 8, ptr %6) #5
  call void @llvm.lifetime.end.p0(i64 8, ptr %5) #5
  call void @llvm.lifetime.end.p0(i64 8, ptr %4) #5
  %64 = load i32, ptr %2, align 4
  ret i32 %64
}

declare void @slurm_xfree(ptr noundef) #2

; Function Attrs: nocallback nofree nosync nounwind willreturn memory(argmem: readwrite)
declare void @llvm.lifetime.end.p0(i64 immarg, ptr captures(none)) #1

; Function Attrs: nounwind uwtable
define internal i32 @_test_val(ptr noundef %0) #0 {
  %2 = alloca i32, align 4
  %3 = alloca ptr, align 8
  %4 = alloca ptr, align 8
  %5 = alloca i64, align 8
  %6 = alloca i32, align 4
  %7 = alloca i32, align 4
  store ptr %0, ptr %3, align 8
  call void @llvm.lifetime.start.p0(i64 8, ptr %4) #5
  store ptr null, ptr %4, align 8
  call void @llvm.lifetime.start.p0(i64 8, ptr %5) #5
  call void @llvm.lifetime.start.p0(i64 4, ptr %6) #5
  store i32 0, ptr %6, align 4
  %8 = load ptr, ptr %3, align 8
  %9 = icmp eq ptr %8, null
  br i1 %9, label %16, label %10

10:                                               ; preds = %1
  %11 = load ptr, ptr %3, align 8
  %12 = getelementptr inbounds i8, ptr %11, i64 0
  %13 = load i8, ptr %12, align 1
  %14 = sext i8 %13 to i32
  %15 = icmp eq i32 %14, 0
  br i1 %15, label %16, label %17

16:                                               ; preds = %10, %1
  store i32 -1, ptr %2, align 4
  store i32 1, ptr %7, align 4
  br label %65

17:                                               ; preds = %10
  %18 = load ptr, ptr %3, align 8
  %19 = getelementptr inbounds i8, ptr %18, i64 0
  %20 = load i8, ptr %19, align 1
  %21 = sext i8 %20 to i32
  %22 = icmp sge i32 %21, 48
  br i1 %22, label %23, label %45

23:                                               ; preds = %17
  %24 = load ptr, ptr %3, align 8
  %25 = getelementptr inbounds i8, ptr %24, i64 0
  %26 = load i8, ptr %25, align 1
  %27 = sext i8 %26 to i32
  %28 = icmp sle i32 %27, 57
  br i1 %28, label %29, label %45

29:                                               ; preds = %23
  %30 = load ptr, ptr %3, align 8
  %31 = call i64 @strtol(ptr noundef %30, ptr noundef %4, i32 noundef 10) #5
  store i64 %31, ptr %5, align 8
  %32 = load i64, ptr %5, align 8
  %33 = icmp eq i64 %32, 9223372036854775807
  br i1 %33, label %43, label %34

34:                                               ; preds = %29
  %35 = load i64, ptr %5, align 8
  %36 = icmp slt i64 %35, 0
  br i1 %36, label %43, label %37

37:                                               ; preds = %34
  %38 = load ptr, ptr %4, align 8
  %39 = getelementptr inbounds i8, ptr %38, i64 0
  %40 = load i8, ptr %39, align 1
  %41 = sext i8 %40 to i32
  %42 = icmp ne i32 %41, 0
  br i1 %42, label %43, label %44

43:                                               ; preds = %37, %34, %29
  store i32 -1, ptr %6, align 4
  br label %44

44:                                               ; preds = %43, %37
  br label %63

45:                                               ; preds = %23, %17
  %46 = load ptr, ptr %3, align 8
  %47 = call i32 @strcmp(ptr noundef %46, ptr noundef @.str.5) #6
  %48 = icmp ne i32 %47, 0
  br i1 %48, label %49, label %62

49:                                               ; preds = %45
  %50 = load ptr, ptr %3, align 8
  %51 = call i32 @strcmp(ptr noundef %50, ptr noundef @.str.6) #6
  %52 = icmp ne i32 %51, 0
  br i1 %52, label %53, label %62

53:                                               ; preds = %49
  %54 = load ptr, ptr %3, align 8
  %55 = call i32 @strcmp(ptr noundef %54, ptr noundef @.str.7) #6
  %56 = icmp ne i32 %55, 0
  br i1 %56, label %57, label %62

57:                                               ; preds = %53
  %58 = load ptr, ptr %3, align 8
  %59 = call i32 @strcmp(ptr noundef %58, ptr noundef @.str.8) #6
  %60 = icmp ne i32 %59, 0
  br i1 %60, label %61, label %62

61:                                               ; preds = %57
  store i32 -1, ptr %6, align 4
  br label %62

62:                                               ; preds = %61, %57, %53, %49, %45
  br label %63

63:                                               ; preds = %62, %44
  %64 = load i32, ptr %6, align 4
  store i32 %64, ptr %2, align 4
  store i32 1, ptr %7, align 4
  br label %65

65:                                               ; preds = %63, %16
  call void @llvm.lifetime.end.p0(i64 4, ptr %6) #5
  call void @llvm.lifetime.end.p0(i64 8, ptr %5) #5
  call void @llvm.lifetime.end.p0(i64 8, ptr %4) #5
  %66 = load i32, ptr %2, align 4
  ret i32 %66
}

; Function Attrs: nounwind
declare i64 @strtol(ptr noundef, ptr noundef, i32 noundef) #3


!llvm.module.flags = !{!0, !1, !2, !3, !4, !5, !6, !7}

!0 = !{i32 7, !"Dwarf Version", i32 5}
!1 = !{i32 2, !"Debug Info Version", i32 3}
!2 = !{i32 1, !"wchar_size", i32 4}
!3 = !{i32 8, !"PIC Level", i32 2}
!4 = !{i32 7, !"PIE Level", i32 2}
!5 = !{i32 7, !"uwtable", i32 2}
!6 = !{i32 7, !"frame-pointer", i32 2}
!7 = !{i32 7, !"debug-info-assignment-tracking", i1 true}
!8 = distinct !{!8, !9, !10}
!9 = !{!"llvm.loop.mustprogress"}
!10 = !{!"llvm.loop.unroll.disable"}
!11 = distinct !{!11, !9, !10}
